Certificate:
    Data:
        Version: 3 (0x2)
        Serial Number: 4096 (0x1000)
    Signature Algorithm: sha256WithRSAEncryption
        Issuer: C=FR, ST=IDF, L=Paris, O=Local NODE-OPCUA Certificate Authority, CN=NodeOPCUA-CA
        Validity
            Not Before: Mar  2 16:11:36 2021 GMT
            Not After : Feb  6 16:11:36 2121 GMT
        Subject: C=FR, ST=IDF, L=Paris, O=NodeOPCUA, OU=NodeOPCUA, CN=NodeOPCUA-TEST
        Subject Public Key Info:
            Public Key Algorithm: rsaEncryption
                Public-Key: (2048 bit)
                Modulus:
                    00:ac:20:a5:35:f1:aa:d7:59:1a:0d:86:31:f2:58:
                    a5:83:56:bb:70:e0:14:29:8a:60:2d:94:0c:e0:c6:
                    f8:5e:b8:61:6e:77:a7:d1:83:17:fc:a7:84:f0:66:
                    64:b9:a6:7a:85:15:c2:5b:9b:fa:25:d0:bc:ba:24:
                    f3:ac:33:c1:ac:b3:d7:4c:f3:67:49:d0:a8:3a:bb:
                    77:22:ef:98:07:53:e3:f9:51:8b:37:61:78:98:d9:
                    bc:68:58:f5:8d:79:2f:26:64:1d:95:aa:a0:36:b8:
                    c8:4e:05:cd:78:67:a4:2e:f1:a0:9e:32:86:68:19:
                    9a:e5:df:31:3d:f6:5c:11:91:ff:28:1f:18:b9:ac:
                    b8:69:78:b5:6a:35:d5:c7:ae:b8:fb:60:3d:b3:e6:
                    0d:6b:1f:e4:b2:4b:d0:5a:80:c0:12:c1:54:63:b5:
                    e5:20:05:ff:e6:72:e4:a5:b9:79:56:02:77:d7:e9:
                    66:2a:4d:31:37:74:02:6b:e9:1b:a3:fa:86:a3:b7:
                    28:03:8c:93:3e:4e:f2:d5:45:42:85:61:cc:94:f8:
                    29:5e:16:ca:55:f3:2b:8f:4b:95:6d:3c:72:7b:7f:
                    f3:69:66:2b:3e:82:89:3b:43:c9:25:8a:54:3a:06:
                    82:5b:57:fc:08:8e:a5:37:90:cd:3c:12:99:f9:24:
                    63:0b
                Exponent: 65537 (0x10001)
        X509v3 extensions:
            X509v3 Basic Constraints: critical
                CA:FALSE
            X509v3 Subject Key Identifier: 
                A4:CE:BF:E0:55:A6:C4:75:C3:B9:92:EC:74:4C:3B:5F:77:34:A3:24
            X509v3 Authority Key Identifier: 
                keyid:A4:7A:61:A0:02:9D:DE:3C:31:D1:06:D6:90:A1:F6:DC:E5:1D:FA:28
                DirName:/C=FR/ST=IDF/L=Paris/O=Local NODE-OPCUA Certificate Authority/CN=NodeOPCUA-CA
                serial:AC:5B:AE:66:4A:72:70:75

            X509v3 Subject Alternative Name: 
                URI:www.oth-aw.de, DNS:DESKTOP-045MA2M
            Netscape Comment: 
                OpenSSL Generated Certificate
            X509v3 Key Usage: critical
                Digital Signature, Non Repudiation, Key Encipherment, Data Encipherment, Key Agreement, Certificate Sign
            X509v3 Extended Key Usage: critical
                TLS Web Server Authentication, TLS Web Client Authentication
    Signature Algorithm: sha256WithRSAEncryption
         49:22:f9:31:fb:b2:1d:76:ac:c3:87:3a:c2:d9:a6:1b:50:5b:
         6b:96:be:1f:49:a2:89:6f:75:32:56:db:8c:34:85:b4:7a:db:
         44:dc:5f:90:d9:a8:5c:b0:54:e0:96:3a:30:c8:81:e1:c7:46:
         50:85:71:2b:5d:79:2c:8e:93:70:8e:b0:27:34:3a:9c:f5:29:
         b4:e4:24:00:94:9a:3b:91:1b:70:e9:23:42:d1:f2:15:09:55:
         ca:db:13:85:14:e9:5a:cb:79:6b:9f:53:2c:fb:ae:be:ef:c6:
         f6:e7:6c:a1:11:4d:3c:27:6e:c1:98:07:20:87:3f:b0:54:49:
         8c:8e:e4:dd:68:28:15:d2:9a:55:78:5d:47:fc:b0:05:98:53:
         c0:8f:f1:6d:99:40:80:c7:28:47:e1:45:54:62:21:23:15:26:
         d6:7e:13:e4:cf:86:94:16:00:08:7c:87:6d:31:5c:ae:07:ae:
         c0:7e:f0:a6:b8:ad:6f:a8:01:36:84:47:20:02:9b:e3:ad:b6:
         c9:79:b7:fa:38:4c:04:58:0a:fc:17:e5:e5:bb:2c:69:6f:5a:
         96:5f:41:0a:e7:b3:97:b2:90:05:d1:fe:86:c0:0a:fa:5f:55:
         a4:72:63:c2:50:52:32:af:10:a3:d9:6d:0e:02:fa:db:05:50:
         64:1a:50:2a
-----BEGIN CERTIFICATE-----
MIIExTCCA62gAwIBAgICEAAwDQYJKoZIhvcNAQELBQAwczELMAkGA1UEBhMCRlIx
DDAKBgNVBAgTA0lERjEOMAwGA1UEBxMFUGFyaXMxLzAtBgNVBAoTJkxvY2FsIE5P
REUtT1BDVUEgQ2VydGlmaWNhdGUgQXV0aG9yaXR5MRUwEwYDVQQDEwxOb2RlT1BD
VUEtQ0EwIhgPMjAyMTAzMDIxNjExMzZaGA8yMTIxMDIwNjE2MTEzNlowbDELMAkG
A1UEBhMCRlIxDDAKBgNVBAgMA0lERjEOMAwGA1UEBwwFUGFyaXMxEjAQBgNVBAoM
CU5vZGVPUENVQTESMBAGA1UECwwJTm9kZU9QQ1VBMRcwFQYDVQQDDA5Ob2RlT1BD
VUEtVEVTVDCCASIwDQYJKoZIhvcNAQEBBQADggEPADCCAQoCggEBAKwgpTXxqtdZ
Gg2GMfJYpYNWu3DgFCmKYC2UDODG+F64YW53p9GDF/ynhPBmZLmmeoUVwlub+iXQ
vLok86wzwayz10zzZ0nQqDq7dyLvmAdT4/lRizdheJjZvGhY9Y15LyZkHZWqoDa4
yE4FzXhnpC7xoJ4yhmgZmuXfMT32XBGR/ygfGLmsuGl4tWo11ceuuPtgPbPmDWsf
5LJL0FqAwBLBVGO15SAF/+Zy5KW5eVYCd9fpZipNMTd0AmvpG6P6hqO3KAOMkz5O
8tVFQoVhzJT4KV4WylXzK49LlW08cnt/82lmKz6CiTtDySWKVDoGgltX/AiOpTeQ
zTwSmfkkYwsCAwEAAaOCAWQwggFgMAwGA1UdEwEB/wQCMAAwHQYDVR0OBBYEFKTO
v+BVpsR1w7mS7HRMO193NKMkMIGlBgNVHSMEgZ0wgZqAFKR6YaACnd48MdEG1pCh
9tzlHfoooXekdTBzMQswCQYDVQQGEwJGUjEMMAoGA1UECBMDSURGMQ4wDAYDVQQH
EwVQYXJpczEvMC0GA1UEChMmTG9jYWwgTk9ERS1PUENVQSBDZXJ0aWZpY2F0ZSBB
dXRob3JpdHkxFTATBgNVBAMTDE5vZGVPUENVQS1DQYIJAKxbrmZKcnB1MCkGA1Ud
EQQiMCCGDXd3dy5vdGgtYXcuZGWCD0RFU0tUT1AtMDQ1TUEyTTAsBglghkgBhvhC
AQ0EHxYdT3BlblNTTCBHZW5lcmF0ZWQgQ2VydGlmaWNhdGUwDgYDVR0PAQH/BAQD
AgL8MCAGA1UdJQEB/wQWMBQGCCsGAQUFBwMBBggrBgEFBQcDAjANBgkqhkiG9w0B
AQsFAAOCAQEASSL5MfuyHXasw4c6wtmmG1Bba5a+H0miiW91MlbbjDSFtHrbRNxf
kNmoXLBU4JY6MMiB4cdGUIVxK115LI6TcI6wJzQ6nPUptOQkAJSaO5EbcOkjQtHy
FQlVytsThRTpWst5a59TLPuuvu/G9udsoRFNPCduwZgHIIc/sFRJjI7k3WgoFdKa
VXhdR/ywBZhTwI/xbZlAgMcoR+FFVGIhIxUm1n4T5M+GlBYACHyHbTFcrgeuwH7w
pritb6gBNoRHIAKb4622yXm3+jhMBFgK/Bfl5bssaW9all9BCuezl7KQBdH+hsAK
+l9VpHJjwlBSMq8Qo9ltDgL62wVQZBpQKg==
-----END CERTIFICATE-----
-----BEGIN CERTIFICATE-----
MIIE3TCCA8WgAwIBAgIJAKxbrmZKcnB1MA0GCSqGSIb3DQEBCwUAMHMxCzAJBgNV
BAYTAkZSMQwwCgYDVQQIEwNJREYxDjAMBgNVBAcTBVBhcmlzMS8wLQYDVQQKEyZM
b2NhbCBOT0RFLU9QQ1VBIENlcnRpZmljYXRlIEF1dGhvcml0eTEVMBMGA1UEAxMM
Tm9kZU9QQ1VBLUNBMB4XDTIxMDMwMjE2MTEzNVoXDTMxMDIyODE2MTEzNVowczEL
MAkGA1UEBhMCRlIxDDAKBgNVBAgTA0lERjEOMAwGA1UEBxMFUGFyaXMxLzAtBgNV
BAoTJkxvY2FsIE5PREUtT1BDVUEgQ2VydGlmaWNhdGUgQXV0aG9yaXR5MRUwEwYD
VQQDEwxOb2RlT1BDVUEtQ0EwggEiMA0GCSqGSIb3DQEBAQUAA4IBDwAwggEKAoIB
AQDTBlzX+1Nan43w5/JYgvsePn41chPu+xtVbQYSJjMfiypoDPbS81PmFx8R38LY
+RqJQonOOinptdE9A+mYPJf0+OQV/kUP+4dmeVuMllrmzFmCtaYInGAqARdAGGk4
GzHEK31k1OxXeqK3pTVSSH4VXt4Fc2p/R7mxsVj+u80wPqH+DNuq2L72w/kTUsku
Nx+ig8SVycIA3fnf9kQebKyaK8zHDeZGXooEXJMvJwR4sY7ltmgGCg/muMFzxiwj
ShdKzte7ifWOAbmqKqdLgLJbmIfkn5dx2L4lm98GBrDfCFP+vjLV7QWmu0PMg1qz
INVqLOHTJT7DBAH9vFAc3qtvAgMBAAGjggFyMIIBbjAdBgNVHQ4EFgQUpHphoAKd
3jwx0QbWkKH23OUd+igwgaUGA1UdIwSBnTCBmoAUpHphoAKd3jwx0QbWkKH23OUd
+iihd6R1MHMxCzAJBgNVBAYTAkZSMQwwCgYDVQQIEwNJREYxDjAMBgNVBAcTBVBh
cmlzMS8wLQYDVQQKEyZMb2NhbCBOT0RFLU9QQ1VBIENlcnRpZmljYXRlIEF1dGhv
cml0eTEVMBMGA1UEAxMMTm9kZU9QQ1VBLUNBggkArFuuZkpycHUwDAYDVR0TBAUw
AwEB/zAOBgNVHQ8BAf8EBAMCAQYwVwYJYIZIAYb4QgENBEoWSENBIENlcnRpZmlj
YXRlIGdlbmVyYXRlZCBieSBOb2RlLU9QQ1VBIENlcnRpZmljYXRlIHV0aWxpdHkg
dXNpbmcgb3BlbnNzbDAuBgNVHR8EJzAlMCOgIaAfhh1odHRwOi8vbG9jYWxob3N0
Ojg5MDAvY3JsLnBlbTANBgkqhkiG9w0BAQsFAAOCAQEAjaa9h7VHfM6kJV5XcJ9A
PsmjWxTXsKblN4h34KnR7cIfCTJNB6IkZUCusR9IacBIJpOZjMJN0u/YL0eFbC7N
dJ9iQW3NSHnTyZmaFfCcCZn4HctHnN0G1oXFArI8q+6XyO7no9rQuP1H0zYScG4K
2XRDoreOdjLYrhNb4ep9efEOkWL/1MoYWRfqIHM0QYhDQx9fXYeAxWw7Y5CWFUFH
U0bJ+q4GnZMq8yuhvJKFcrrBr47YfV96mKeflv0VCw7K9WqLlaIRAUOvNrzy5+t2
PXq/KpC/2oOS1AjivSqMWqLsNLK/DZrAjOATJKpCCxpSpbsC4cdGg43x2g1mXgW3
WA==
-----END CERTIFICATE-----
